; Function Attrs: nounwind uwtable
define dso_local ptr @data_key_get_int(ptr noundef readonly captures(address_is_null) %0, i64 noundef %1) local_unnamed_addr #0 {
  %3 = alloca [21 x i8], align 16
  call void @llvm.lifetime.start.p0(i64 21, ptr nonnull %3) #16
  %4 = call i32 (ptr, i64, ptr, ...) @snprintf(ptr noundef nonnull dereferenceable(1) %3, i64 noundef 21, ptr noundef nonnull @.str.17, i64 noundef %1) #16
  %.not.i.i = icmp eq ptr %0, null
  br i1 %.not.i.i, label %data_key_get.exit, label %5

5:                                                ; preds = %2
  %6 = getelementptr inbounds nuw i8, ptr %0, i64 4
  %7 = load i32, ptr %6, align 4
  %.not18.i.i = icmp eq i32 %7, 65283
  br i1 %.not18.i.i, label %8, label %data_key_get.exit

8:                                                ; preds = %5
  %9 = getelementptr inbounds nuw i8, ptr %0, i64 8
  %10 = load ptr, ptr %9, align 8
  %11 = getelementptr inbounds nuw i8, ptr %10, i64 8
  %12 = load i64, ptr %11, align 8
  %.not19.i.i = icmp eq i64 %12, 0
  br i1 %.not19.i.i, label %data_key_get.exit, label %13

13:                                               ; preds = %8
  %14 = getelementptr inbounds nuw i8, ptr %10, i64 16
  %.021.i.i = load ptr, ptr %14, align 8
  %.not2022.i.i = icmp eq ptr %.021.i.i, null
  br i1 %.not2022.i.i, label %data_key_get.exit, label %.lr.ph.i.i

.lr.ph.i.i:                                       ; preds = %13, %18
  %.023.i.i = phi ptr [ %.0.i.i, %18 ], [ %.021.i.i, %13 ]
  %15 = getelementptr inbounds nuw i8, ptr %.023.i.i, i64 24
  %16 = load ptr, ptr %15, align 8
  %17 = call i32 @xstrcmp(ptr noundef %16, ptr noundef nonnull %3) #16
  %.not.i2.i = icmp eq i32 %17, 0
  br i1 %.not.i2.i, label %20, label %18

18:                                               ; preds = %.lr.ph.i.i
  %19 = getelementptr inbounds nuw i8, ptr %.023.i.i, i64 8
  %.0.i.i = load ptr, ptr %19, align 8
  %.not20.i.i = icmp eq ptr %.0.i.i, null
  br i1 %.not20.i.i, label %data_key_get.exit, label %.lr.ph.i.i, !llvm.loop !16

20:                                               ; preds = %.lr.ph.i.i
  %21 = getelementptr inbounds nuw i8, ptr %.023.i.i, i64 16
  %22 = load ptr, ptr %21, align 8
  br label %data_key_get.exit

data_key_get.exit:                                ; preds = %18, %2, %5, %8, %13, %20
  %.016.i.i = phi ptr [ %22, %20 ], [ null, %2 ], [ null, %5 ], [ null, %8 ], [ null, %13 ], [ null, %18 ]
  call void @llvm.lifetime.end.p0(i64 21, ptr nonnull %3) #16
  ret ptr %.016.i.i
}